0000000000401930 <start_farm>:
  401930:	b8 01 00 00 00       	mov    $0x1,%eax
  401935:	c3                   	ret    

0000000000401936 <setval_327>:
  401936:	c7 07 48 89 d6 c2    	movl   $0xc2d68948,(%rdi)
  40193c:	c3                   	ret    

000000000040193d <addval_445>:
  40193d:	8d 87 48 01 ce c3    	lea    -0x3c31feb8(%rdi),%eax
  401943:	c3                   	ret    

0000000000401944 <getval_307>:
  401944:	b8 08 89 c7 c3       	mov    $0xc3c78908,%eax
  401949:	c3                   	ret    

000000000040194a <addval_446>:
  40194a:	8d 87 48 89 d6 c3    	lea    -0x3c2976b8(%rdi),%eax
  401950:	c3                   	ret    

0000000000401951 <getval_129>:
  401951:	b8 f3 48 89 c8       	mov    $0xc88948f3,%eax
  401956:	c3                   	ret    

0000000000401957 <setval_453>:
  401957:	c7 07 48 89 c8 c7    	movl   $0xc7c88948,(%rdi)
  40195d:	c3                   	ret    

000000000040195e <setval_376>:
  40195e:	c7 07 d1 59 c1 50    	movl   $0x50c159d1,(%rdi)
  401964:	c3                   	ret    

0000000000401965 <getval_385>:
  401965:	b8 48 89 fa c3       	mov    $0xc3fa8948,%eax
  40196a:	c3                   	ret    

000000000040196b <getval_216>:
  40196b:	b8 48 89 c7 92       	mov    $0x92c78948,%eax
  401970:	c3                   	ret    

0000000000401971 <addval_488>:
  401971:	8d 87 48 89 fa 94    	lea    -0x6b0576b8(%rdi),%eax
  401977:	c3                   	ret    

0000000000401978 <addval_493>:
  401978:	8d 87 a3 a9 ca 59    	lea    0x59caa9a3(%rdi),%eax
  40197e:	c3                   	ret    

000000000040197f <setval_110>:
  40197f:	c7 07 90 48 89 d6    	movl   $0xd6894890,(%rdi)
  401985:	c3                   	ret    

0000000000401986 <setval_393>:
  401986:	c7 07 68 89 fa c3    	movl   $0xc3fa8968,(%rdi)
  40198c:	c3                   	ret    

000000000040198d <setval_498>:
  40198d:	c7 07 48 89 d6 91    	movl   $0x91d68948,(%rdi)
  401993:	c3                   	ret    

0000000000401994 <setval_159>:
  401994:	c7 07 48 89 c7 c3    	movl   $0xc3c78948,(%rdi)
  40199a:	c3                   	ret    

000000000040199b <addval_413>:
  40199b:	8d 87 bb 48 89 fa    	lea    -0x576b745(%rdi),%eax
  4019a1:	c3                   	ret    

00000000004019a2 <getval_382>:
  4019a2:	b8 04 f0 59 94       	mov    $0x9459f004,%eax
  4019a7:	c3                   	ret    

00000000004019a8 <addval_486>:
  4019a8:	8d 87 48 01 ce c3    	lea    -0x3c31feb8(%rdi),%eax
  4019ae:	c3                   	ret    

00000000004019af <setval_470>:
  4019af:	c7 07 48 41 ce c3    	movl   $0xc3ce4148,(%rdi)
  4019b5:	c3                   	ret    

00000000004019b6 <setval_375>:
  4019b6:	c7 07 48 01 ce c2    	movl   $0xc2ce0148,(%rdi)
  4019bc:	c3                   	ret    

00000000004019bd <setval_427>:
  4019bd:	c7 07 48 89 c8 91    	movl   $0x91c88948,(%rdi)
  4019c3:	c3                   	ret    

00000000004019c4 <getval_177>:
  4019c4:	b8 15 24 59 90       	mov    $0x90592415,%eax
  4019c9:	c3                   	ret    

00000000004019ca <getval_302>:
  4019ca:	b8 38 48 89 c8       	mov    $0xc8894838,%eax
  4019cf:	c3                   	ret    

00000000004019d0 <addval_289>:
  4019d0:	8d 87 48 89 c7 c3    	lea    -0x3c3876b8(%rdi),%eax
  4019d6:	c3                   	ret    

00000000004019d7 <end_farm>:
  4019d7:	b8 01 00 00 00       	mov    $0x1,%eax
  4019dc:	c3                   	ret    